target datalayout = "e-m:e-p270:32:32-p271:32:32-p272:64:64-i64:64-i128:128-f80:128-n8:16:32:64-S128"
target triple = "x86_64-pc-linux-gnu"

%struct.H5D_chk_idx_info_t = type { ptr, ptr, ptr, ptr }
%struct.H5O_pline_t = type { %struct.H5O_shared_t, i32, i64, i64, ptr }
%struct.H5O_shared_t = type { i32, ptr, i32, %union.anon }
%union.anon = type { %struct.H5O_mesg_loc_t }
%struct.H5O_mesg_loc_t = type { i32, i64 }

@H5D_init_g = external global i8, align 1
@H5_libterm_g = external global i8, align 1
@.str = private unnamed_addr constant [103 x i8] c"generated/home/dtcxzyw/WorkSpace/Projects/compilers/llvm-opt-benchmark/bench/hdf5/hdf5/src/H5Dsingle.c\00", align 1
@H5E_DATASET_g = external global i64, align 8
@__func__.H5D__single_idx_copy_setup = private unnamed_addr constant [27 x i8] c"H5D__single_idx_copy_setup\00", align 1
@H5E_CANTINIT_g = external global i64, align 8
@.str.4 = private unnamed_addr constant [37 x i8] c"unable to initialize chunked storage\00", align 1

; Function Attrs: nounwind uwtable
define internal i32 @H5D__single_idx_create(ptr noundef %0) #0 {
  %2 = alloca ptr, align 8
  store ptr %0, ptr %2, align 8, !tbaa !3
  %3 = load i8, ptr @H5D_init_g, align 1, !tbaa !12, !range !14, !noundef !15
  %4 = trunc i8 %3 to i1
  br i1 %4, label %9, label %5

5:                                                ; preds = %1
  %6 = load i8, ptr @H5_libterm_g, align 1, !tbaa !12, !range !14, !noundef !15
  %7 = trunc i8 %6 to i1
  %8 = xor i1 %7, true
  br label %9

9:                                                ; preds = %5, %1
  %10 = phi i1 [ true, %1 ], [ %8, %5 ]
  %11 = xor i1 %10, true
  %12 = xor i1 %11, true
  %13 = zext i1 %12 to i32
  %14 = sext i32 %13 to i64
  %15 = call i64 @llvm.expect.i64(i64 %14, i64 1)
  %16 = icmp ne i64 %15, 0
  br i1 %16, label %17, label %27

17:                                               ; preds = %9
  %18 = load ptr, ptr %2, align 8, !tbaa !3
  %19 = getelementptr inbounds nuw %struct.H5D_chk_idx_info_t, ptr %18, i32 0, i32 1
  %20 = load ptr, ptr %19, align 8, !tbaa !16
  %21 = getelementptr inbounds nuw %struct.H5O_pline_t, ptr %20, i32 0, i32 3
  %22 = load i64, ptr %21, align 8, !tbaa !22
  %23 = icmp ne i64 %22, 0
  br i1 %23, label %24, label %25

24:                                               ; preds = %17
  br label %26

25:                                               ; preds = %17
  br label %26

26:                                               ; preds = %25, %24
  br label %27

27:                                               ; preds = %26, %9
  ret i32 0
}

; Function Attrs: nounwind uwtable
define internal i32 @H5D__single_idx_copy_setup(ptr noundef %0, ptr noundef %1) #0 {
  %3 = alloca i32, align 4
  %4 = alloca ptr, align 8
  %5 = alloca ptr, align 8
  %6 = alloca i32, align 4
  %7 = alloca i8, align 1
  %8 = alloca i64, align 8
  %9 = alloca i32, align 4
  store ptr %0, ptr %4, align 8, !tbaa !3
  store ptr %1, ptr %5, align 8, !tbaa !3
  call void @llvm.lifetime.start.p0(i64 4, ptr %6) #6
  store i32 0, ptr %6, align 4, !tbaa !42
  call void @llvm.lifetime.start.p0(i64 1, ptr %7) #6
  store i8 0, ptr %7, align 1, !tbaa !12
  %10 = load i8, ptr @H5D_init_g, align 1, !tbaa !12, !range !14, !noundef !15
  %11 = trunc i8 %10 to i1
  br i1 %11, label %16, label %12

12:                                               ; preds = %2
  %13 = load i8, ptr @H5_libterm_g, align 1, !tbaa !12, !range !14, !noundef !15
  %14 = trunc i8 %13 to i1
  %15 = xor i1 %14, true
  br label %16

16:                                               ; preds = %12, %2
  %17 = phi i1 [ true, %2 ], [ %15, %12 ]
  %18 = xor i1 %17, true
  %19 = xor i1 %18, true
  %20 = zext i1 %19 to i32
  %21 = sext i32 %20 to i64
  %22 = call i64 @llvm.expect.i64(i64 %21, i64 1)
  %23 = icmp ne i64 %22, 0
  br i1 %23, label %24, label %53

24:                                               ; preds = %16
  call void @llvm.lifetime.start.p0(i64 8, ptr %8) #6
  store i64 -1, ptr %8, align 8, !tbaa !10
  call void @H5AC_tag(i64 noundef 2, ptr noundef %8)
  %25 = load ptr, ptr %5, align 8, !tbaa !3
  %26 = call i32 @H5D__single_idx_create(ptr noundef %25)
  %27 = icmp slt i32 %26, 0
  br i1 %27, label %28, label %47

28:                                               ; preds = %24
  br label %29

29:                                               ; preds = %28
  br label %30

30:                                               ; preds = %29
  br label %31

31:                                               ; preds = %30
  %32 = load i64, ptr @H5E_DATASET_g, align 8, !tbaa !10
  %33 = load i64, ptr @H5E_CANTINIT_g, align 8, !tbaa !10
  %34 = call i32 (ptr, ptr, i32, i64, i64, ptr, ...) @H5E_printf_stack(ptr noundef @.str, ptr noundef @__func__.H5D__single_idx_copy_setup, i32 noundef 517, i64 noundef %32, i64 noundef %33, ptr noundef @.str.4)
  br label %35

35:                                               ; preds = %31
  br label %36

36:                                               ; preds = %35
  store i8 1, ptr %7, align 1, !tbaa !12
  %37 = load i8, ptr %7, align 1, !tbaa !12, !range !14, !noundef !15
  %38 = trunc i8 %37 to i1
  %39 = zext i1 %38 to i8
  store i8 %39, ptr %7, align 1, !tbaa !12
  br label %40

40:                                               ; preds = %36
  br label %41

41:                                               ; preds = %40
  br label %42

42:                                               ; preds = %41
  store i32 -1, ptr %6, align 4, !tbaa !42
  store i32 10, ptr %9, align 4
  br label %49

43:                                               ; No predecessors!
  br label %44

44:                                               ; preds = %43
  br label %45

45:                                               ; preds = %44
  br label %46

46:                                               ; preds = %45
  br label %47

47:                                               ; preds = %46, %24
  %48 = load i64, ptr %8, align 8, !tbaa !10
  call void @H5AC_tag(i64 noundef %48, ptr noundef null)
  store i32 0, ptr %9, align 4
  br label %49

49:                                               ; preds = %42, %47
  call void @llvm.lifetime.end.p0(i64 8, ptr %8) #6
  %50 = load i32, ptr %9, align 4
  switch i32 %50, label %55 [
    i32 0, label %51
    i32 10, label %52
  ]

51:                                               ; preds = %49
  br label %52

52:                                               ; preds = %51, %49
  br label %53

53:                                               ; preds = %52, %16
  %54 = load i32, ptr %6, align 4, !tbaa !42
  store i32 %54, ptr %3, align 4
  store i32 1, ptr %9, align 4
  br label %55

55:                                               ; preds = %53, %49
  call void @llvm.lifetime.end.p0(i64 1, ptr %7) #6
  call void @llvm.lifetime.end.p0(i64 4, ptr %6) #6
  %56 = load i32, ptr %3, align 4
  ret i32 %56
}